; Function Attrs: mustprogress uwtable
define dso_local void @_ZN16b3GpuNarrowPhase21setObjectTransformCpuEPfS0_i(ptr noundef nonnull readonly align 8 captures(none) dereferenceable(56) %0, ptr noundef readonly captures(none) %1, ptr noundef readonly captures(none) %2, i32 noundef %3) local_unnamed_addr #12 align 2 {
  %5 = icmp sgt i32 %3, -1
  br i1 %5, label %6, label %40

6:                                                ; preds = %4
  %7 = getelementptr inbounds nuw i8, ptr %0, i64 8
  %8 = load ptr, ptr %7, align 8, !tbaa !7
  %9 = getelementptr inbounds nuw i8, ptr %8, i64 336
  %10 = load ptr, ptr %9, align 8, !tbaa !102
  %11 = getelementptr inbounds nuw i8, ptr %10, i64 4
  %12 = load i32, ptr %11, align 4, !tbaa !100
  %13 = icmp slt i32 %3, %12
  br i1 %13, label %14, label %40

14:                                               ; preds = %6
  %15 = load float, ptr %1, align 4, !tbaa !152
  %16 = getelementptr inbounds nuw i8, ptr %1, i64 4
  %17 = load float, ptr %16, align 4, !tbaa !152
  %18 = getelementptr inbounds nuw i8, ptr %1, i64 8
  %19 = load float, ptr %18, align 4, !tbaa !152
  %.sroa.0.0.vec.insert.i = insertelement <2 x float> poison, float %15, i64 0
  %.sroa.0.4.vec.insert.i = insertelement <2 x float> %.sroa.0.0.vec.insert.i, float %17, i64 1
  %.sroa.3.12.vec.insert.i = insertelement <2 x float> <float poison, float 0.000000e+00>, float %19, i64 0
  %20 = getelementptr inbounds nuw i8, ptr %10, i64 16
  %21 = load ptr, ptr %20, align 8, !tbaa !99
  %22 = zext nneg i32 %3 to i64
  %23 = getelementptr inbounds nuw %struct.b3RigidBodyData, ptr %21, i64 %22
  store <2 x float> %.sroa.0.4.vec.insert.i, ptr %23, align 16
  %.sroa.4.0..sroa_idx = getelementptr inbounds nuw i8, ptr %23, i64 8
  store <2 x float> %.sroa.3.12.vec.insert.i, ptr %.sroa.4.0..sroa_idx, align 8, !tbaa !124
  %24 = load ptr, ptr %7, align 8, !tbaa !7
  %25 = getelementptr inbounds nuw i8, ptr %24, i64 336
  %26 = load ptr, ptr %25, align 8, !tbaa !102
  %27 = getelementptr inbounds nuw i8, ptr %26, i64 16
  %28 = load ptr, ptr %27, align 8, !tbaa !99
  %29 = getelementptr inbounds nuw %struct.b3RigidBodyData, ptr %28, i64 %22, i32 1
  %30 = getelementptr inbounds nuw i8, ptr %2, i64 4
  %31 = getelementptr inbounds nuw i8, ptr %2, i64 8
  %32 = getelementptr inbounds nuw i8, ptr %2, i64 12
  %33 = load float, ptr %2, align 4, !tbaa !152
  store float %33, ptr %29, align 16, !tbaa !124
  %34 = load float, ptr %30, align 4, !tbaa !152
  %35 = getelementptr inbounds nuw i8, ptr %29, i64 4
  store float %34, ptr %35, align 4, !tbaa !124
  %36 = load float, ptr %31, align 4, !tbaa !152
  %37 = getelementptr inbounds nuw i8, ptr %29, i64 8
  store float %36, ptr %37, align 8, !tbaa !124
  %38 = load float, ptr %32, align 4, !tbaa !152
  %39 = getelementptr inbounds nuw i8, ptr %29, i64 12
  store float %38, ptr %39, align 4, !tbaa !124
  br label %41

40:                                               ; preds = %4, %6
  tail call void (ptr, ...) @b3OutputWarningMessageVarArgsInternal(ptr noundef nonnull @.str.6, ptr noundef nonnull @.str.1, i32 noundef 979)
  tail call void (ptr, ...) @b3OutputWarningMessageVarArgsInternal(ptr noundef nonnull @.str.7)
  br label %41

41:                                               ; preds = %40, %14
  ret void
}